target datalayout = "e-m:e-p270:32:32-p271:32:32-p272:64:64-i64:64-i128:128-f80:128-n8:16:32:64-S128"
target triple = "x86_64-pc-linux-gnu"

%struct.opj_tcd_precinct = type { i32, i32, i32, i32, i32, i32, %union.anon.0, i32, ptr, ptr }
%union.anon.0 = type { ptr }
%struct.opj_tcd_cblk_dec = type { ptr, ptr, i32, i32, i32, i32, i32, i32, i32, i32, i32, i32, i32, i32, i32, ptr, i32 }

; Function Attrs: nounwind uwtable
define internal void @opj_tcd_code_block_dec_deallocate(ptr noundef %0) #0 {
  %2 = alloca ptr, align 8
  %3 = alloca i32, align 4
  %4 = alloca i32, align 4
  %5 = alloca ptr, align 8
  store ptr %0, ptr %2, align 8, !tbaa !46
  call void @llvm.lifetime.start.p0(i64 4, ptr %3) #8
  call void @llvm.lifetime.start.p0(i64 4, ptr %4) #8
  call void @llvm.lifetime.start.p0(i64 8, ptr %5) #8
  %6 = load ptr, ptr %2, align 8, !tbaa !46
  %7 = getelementptr inbounds nuw %struct.opj_tcd_precinct, ptr %6, i32 0, i32 6
  %8 = load ptr, ptr %7, align 8, !tbaa !36
  store ptr %8, ptr %5, align 8, !tbaa !159
  %9 = load ptr, ptr %5, align 8, !tbaa !159
  %10 = icmp ne ptr %9, null
  br i1 %10, label %11, label %59

11:                                               ; preds = %1
  %12 = load ptr, ptr %2, align 8, !tbaa !46
  %13 = getelementptr inbounds nuw %struct.opj_tcd_precinct, ptr %12, i32 0, i32 7
  %14 = load i32, ptr %13, align 8, !tbaa !149
  %15 = udiv i32 %14, 88
  store i32 %15, ptr %4, align 4, !tbaa !3
  store i32 0, ptr %3, align 4, !tbaa !3
  br label %16

16:                                               ; preds = %50, %11
  %17 = load i32, ptr %3, align 4, !tbaa !3
  %18 = load i32, ptr %4, align 4, !tbaa !3
  %19 = icmp ult i32 %17, %18
  br i1 %19, label %20, label %53

20:                                               ; preds = %16
  %21 = load ptr, ptr %5, align 8, !tbaa !159
  %22 = getelementptr inbounds nuw %struct.opj_tcd_cblk_dec, ptr %21, i32 0, i32 0
  %23 = load ptr, ptr %22, align 8, !tbaa !273
  %24 = icmp ne ptr %23, null
  br i1 %24, label %25, label %31

25:                                               ; preds = %20
  %26 = load ptr, ptr %5, align 8, !tbaa !159
  %27 = getelementptr inbounds nuw %struct.opj_tcd_cblk_dec, ptr %26, i32 0, i32 0
  %28 = load ptr, ptr %27, align 8, !tbaa !273
  call void @opj_free(ptr noundef %28)
  %29 = load ptr, ptr %5, align 8, !tbaa !159
  %30 = getelementptr inbounds nuw %struct.opj_tcd_cblk_dec, ptr %29, i32 0, i32 0
  store ptr null, ptr %30, align 8, !tbaa !273
  br label %31

31:                                               ; preds = %25, %20
  %32 = load ptr, ptr %5, align 8, !tbaa !159
  %33 = getelementptr inbounds nuw %struct.opj_tcd_cblk_dec, ptr %32, i32 0, i32 1
  %34 = load ptr, ptr %33, align 8, !tbaa !275
  %35 = icmp ne ptr %34, null
  br i1 %35, label %36, label %42

36:                                               ; preds = %31
  %37 = load ptr, ptr %5, align 8, !tbaa !159
  %38 = getelementptr inbounds nuw %struct.opj_tcd_cblk_dec, ptr %37, i32 0, i32 1
  %39 = load ptr, ptr %38, align 8, !tbaa !275
  call void @opj_free(ptr noundef %39)
  %40 = load ptr, ptr %5, align 8, !tbaa !159
  %41 = getelementptr inbounds nuw %struct.opj_tcd_cblk_dec, ptr %40, i32 0, i32 1
  store ptr null, ptr %41, align 8, !tbaa !275
  br label %42

42:                                               ; preds = %36, %31
  %43 = load ptr, ptr %5, align 8, !tbaa !159
  %44 = getelementptr inbounds nuw %struct.opj_tcd_cblk_dec, ptr %43, i32 0, i32 15
  %45 = load ptr, ptr %44, align 8, !tbaa !278
  call void @opj_aligned_free(ptr noundef %45)
  %46 = load ptr, ptr %5, align 8, !tbaa !159
  %47 = getelementptr inbounds nuw %struct.opj_tcd_cblk_dec, ptr %46, i32 0, i32 15
  store ptr null, ptr %47, align 8, !tbaa !278
  %48 = load ptr, ptr %5, align 8, !tbaa !159
  %49 = getelementptr inbounds nuw %struct.opj_tcd_cblk_dec, ptr %48, i32 1
  store ptr %49, ptr %5, align 8, !tbaa !159
  br label %50

50:                                               ; preds = %42
  %51 = load i32, ptr %3, align 4, !tbaa !3
  %52 = add i32 %51, 1
  store i32 %52, ptr %3, align 4, !tbaa !3
  br label %16, !llvm.loop !280

53:                                               ; preds = %16
  %54 = load ptr, ptr %2, align 8, !tbaa !46
  %55 = getelementptr inbounds nuw %struct.opj_tcd_precinct, ptr %54, i32 0, i32 6
  %56 = load ptr, ptr %55, align 8, !tbaa !36
  call void @opj_free(ptr noundef %56)
  %57 = load ptr, ptr %2, align 8, !tbaa !46
  %58 = getelementptr inbounds nuw %struct.opj_tcd_precinct, ptr %57, i32 0, i32 6
  store ptr null, ptr %58, align 8, !tbaa !36
  br label %59

59:                                               ; preds = %53, %1
  call void @llvm.lifetime.end.p0(i64 8, ptr %5) #8
  call void @llvm.lifetime.end.p0(i64 4, ptr %4) #8
  call void @llvm.lifetime.end.p0(i64 4, ptr %3) #8
  ret void
}