; Function Attrs: nounwind uwtable
define internal void @opj_tcd_code_block_dec_deallocate(ptr noundef captures(none) %0) unnamed_addr #0 {
  %2 = getelementptr inbounds nuw i8, ptr %0, i64 24
  %3 = load ptr, ptr %2, align 8, !tbaa !30
  %.not = icmp eq ptr %3, null
  br i1 %.not, label %20, label %4

4:                                                ; preds = %1
  %5 = getelementptr inbounds nuw i8, ptr %0, i64 32
  %6 = load i32, ptr %5, align 8, !tbaa !126
  %7 = udiv i32 %6, 88
  %.not24 = icmp ult i32 %6, 88
  br i1 %.not24, label %._crit_edge, label %.lr.ph

.lr.ph:                                           ; preds = %4, %14
  %.023 = phi ptr [ %17, %14 ], [ %3, %4 ]
  %.01622 = phi i32 [ %18, %14 ], [ 0, %4 ]
  %8 = load ptr, ptr %.023, align 8, !tbaa !127
  %.not20 = icmp eq ptr %8, null
  br i1 %.not20, label %10, label %9

9:                                                ; preds = %.lr.ph
  tail call void @opj_free(ptr noundef nonnull %8) #16
  store ptr null, ptr %.023, align 8, !tbaa !127
  br label %10

10:                                               ; preds = %9, %.lr.ph
  %11 = getelementptr inbounds nuw i8, ptr %.023, i64 8
  %12 = load ptr, ptr %11, align 8, !tbaa !132
  %.not21 = icmp eq ptr %12, null
  br i1 %.not21, label %14, label %13

13:                                               ; preds = %10
  tail call void @opj_free(ptr noundef nonnull %12) #16
  store ptr null, ptr %11, align 8, !tbaa !132
  br label %14

14:                                               ; preds = %13, %10
  %15 = getelementptr inbounds nuw i8, ptr %.023, i64 72
  %16 = load ptr, ptr %15, align 8, !tbaa !134
  tail call void @opj_aligned_free(ptr noundef %16) #16
  store ptr null, ptr %15, align 8, !tbaa !134
  %17 = getelementptr inbounds nuw i8, ptr %.023, i64 88
  %18 = add nuw nsw i32 %.01622, 1
  %exitcond.not = icmp eq i32 %18, %7
  br i1 %exitcond.not, label %._crit_edge.loopexit, label %.lr.ph, !llvm.loop !273

._crit_edge.loopexit:                             ; preds = %14
  %.pre = load ptr, ptr %2, align 8, !tbaa !30
  br label %._crit_edge

._crit_edge:                                      ; preds = %._crit_edge.loopexit, %4
  %19 = phi ptr [ %.pre, %._crit_edge.loopexit ], [ %3, %4 ]
  tail call void @opj_free(ptr noundef %19) #16
  store ptr null, ptr %2, align 8, !tbaa !30
  br label %20

20:                                               ; preds = %._crit_edge, %1
  ret void
}